target datalayout = "e-m:e-p270:32:32-p271:32:32-p272:64:64-i64:64-i128:128-f80:128-n8:16:32:64-S128"
target triple = "x86_64-pc-linux-gnu"

%"class.cv::tinyxml2::StrPair" = type { i32, ptr, ptr }
%"class.cv::tinyxml2::XMLNode" = type { ptr, ptr, ptr, %"class.cv::tinyxml2::StrPair", ptr, ptr, ptr, ptr, ptr }
%"class.cv::tinyxml2::XMLElement" = type { %"class.cv::tinyxml2::XMLNode", i32, ptr }

; Function Attrs: inlinehint mustprogress nounwind uwtable
define linkonce_odr hidden noundef i32 @_ZN2cv8tinyxml27XMLUtil18IsUTF8ContinuationEc(i8 noundef signext %0) #8 comdat align 2 {
  %2 = alloca i8, align 1
  store i8 %0, ptr %2, align 1, !tbaa !18
  %3 = load i8, ptr %2, align 1, !tbaa !18
  %4 = sext i8 %3 to i32
  %5 = and i32 %4, 128
  ret i32 %5
}

; Function Attrs: mustprogress nounwind uwtable
define linkonce_odr hidden noundef zeroext i1 @_ZNK2cv8tinyxml27StrPair5EmptyEv(ptr noundef nonnull align 8 dereferenceable(24) %0) #0 comdat align 2 {
  %2 = alloca ptr, align 8
  store ptr %0, ptr %2, align 8, !tbaa !3
  %3 = load ptr, ptr %2, align 8
  %4 = getelementptr inbounds nuw %"class.cv::tinyxml2::StrPair", ptr %3, i32 0, i32 1
  %5 = load ptr, ptr %4, align 8, !tbaa !12
  %6 = getelementptr inbounds nuw %"class.cv::tinyxml2::StrPair", ptr %3, i32 0, i32 2
  %7 = load ptr, ptr %6, align 8, !tbaa !13
  %8 = icmp eq ptr %5, %7
  ret i1 %8
}

; Function Attrs: mustprogress uwtable
define linkonce_odr hidden noundef ptr @_ZN2cv8tinyxml27XMLUtil14SkipWhiteSpaceEPc(ptr noundef %0) #3 comdat align 2 {
  %2 = alloca ptr, align 8
  store ptr %0, ptr %2, align 8, !tbaa !14
  br label %3

3:                                                ; preds = %16, %1
  %4 = load ptr, ptr %2, align 8, !tbaa !14
  %5 = load i8, ptr %4, align 1, !tbaa !18
  %6 = call noundef i32 @_ZN2cv8tinyxml27XMLUtil18IsUTF8ContinuationEc(i8 noundef signext %5)
  %7 = icmp ne i32 %6, 0
  br i1 %7, label %14, label %8

8:                                                ; preds = %3
  %9 = load ptr, ptr %2, align 8, !tbaa !14
  %10 = load i8, ptr %9, align 1, !tbaa !18
  %11 = zext i8 %10 to i32
  %12 = call i32 @isspace(i32 noundef %11) #18
  %13 = icmp ne i32 %12, 0
  br label %14

14:                                               ; preds = %8, %3
  %15 = phi i1 [ false, %3 ], [ %13, %8 ]
  br i1 %15, label %16, label %19

16:                                               ; preds = %14
  %17 = load ptr, ptr %2, align 8, !tbaa !14
  %18 = getelementptr inbounds nuw i8, ptr %17, i32 1
  store ptr %18, ptr %2, align 8, !tbaa !14
  br label %3, !llvm.loop !23

19:                                               ; preds = %14
  %20 = load ptr, ptr %2, align 8, !tbaa !14
  ret ptr %20
}

; Function Attrs: mustprogress uwtable
define hidden noundef ptr @_ZN2cv8tinyxml210XMLElement9ParseDeepEPcPNS0_7StrPairE(ptr noundef nonnull align 8 dereferenceable(104) %0, ptr noundef %1, ptr noundef %2) unnamed_addr #3 align 2 {
  %4 = alloca ptr, align 8
  %5 = alloca ptr, align 8
  %6 = alloca ptr, align 8
  %7 = alloca ptr, align 8
  store ptr %0, ptr %5, align 8, !tbaa !121
  store ptr %1, ptr %6, align 8, !tbaa !14
  store ptr %2, ptr %7, align 8, !tbaa !3
  %8 = load ptr, ptr %5, align 8
  %9 = load ptr, ptr %6, align 8, !tbaa !14
  %10 = call noundef ptr @_ZN2cv8tinyxml27XMLUtil14SkipWhiteSpaceEPc(ptr noundef %9)
  store ptr %10, ptr %6, align 8, !tbaa !14
  %11 = load ptr, ptr %6, align 8, !tbaa !14
  %12 = icmp ne ptr %11, null
  br i1 %12, label %14, label %13

13:                                               ; preds = %3
  store ptr null, ptr %4, align 8
  br label %50

14:                                               ; preds = %3
  %15 = load ptr, ptr %6, align 8, !tbaa !14
  %16 = load i8, ptr %15, align 1, !tbaa !18
  %17 = sext i8 %16 to i32
  %18 = icmp eq i32 %17, 47
  br i1 %18, label %19, label %23

19:                                               ; preds = %14
  %20 = getelementptr inbounds nuw %"class.cv::tinyxml2::XMLElement", ptr %8, i32 0, i32 1
  store i32 2, ptr %20, align 8, !tbaa !140
  %21 = load ptr, ptr %6, align 8, !tbaa !14
  %22 = getelementptr inbounds nuw i8, ptr %21, i32 1
  store ptr %22, ptr %6, align 8, !tbaa !14
  br label %23

23:                                               ; preds = %19, %14
  %24 = getelementptr inbounds nuw %"class.cv::tinyxml2::XMLNode", ptr %8, i32 0, i32 3
  %25 = load ptr, ptr %6, align 8, !tbaa !14
  %26 = call noundef ptr @_ZN2cv8tinyxml27StrPair9ParseNameEPc(ptr noundef nonnull align 8 dereferenceable(24) %24, ptr noundef %25)
  store ptr %26, ptr %6, align 8, !tbaa !14
  %27 = getelementptr inbounds nuw %"class.cv::tinyxml2::XMLNode", ptr %8, i32 0, i32 3
  %28 = call noundef zeroext i1 @_ZNK2cv8tinyxml27StrPair5EmptyEv(ptr noundef nonnull align 8 dereferenceable(24) %27)
  br i1 %28, label %29, label %30

29:                                               ; preds = %23
  store ptr null, ptr %4, align 8
  br label %50

30:                                               ; preds = %23
  %31 = load ptr, ptr %6, align 8, !tbaa !14
  %32 = call noundef ptr @_ZN2cv8tinyxml210XMLElement15ParseAttributesEPc(ptr noundef nonnull align 8 dereferenceable(104) %8, ptr noundef %31)
  store ptr %32, ptr %6, align 8, !tbaa !14
  %33 = load ptr, ptr %6, align 8, !tbaa !14
  %34 = icmp ne ptr %33, null
  br i1 %34, label %35, label %43

35:                                               ; preds = %30
  %36 = load ptr, ptr %6, align 8, !tbaa !14
  %37 = load i8, ptr %36, align 1, !tbaa !18
  %38 = icmp ne i8 %37, 0
  br i1 %38, label %39, label %43

39:                                               ; preds = %35
  %40 = getelementptr inbounds nuw %"class.cv::tinyxml2::XMLElement", ptr %8, i32 0, i32 1
  %41 = load i32, ptr %40, align 8, !tbaa !140
  %42 = icmp ne i32 %41, 0
  br i1 %42, label %43, label %45

43:                                               ; preds = %39, %35, %30
  %44 = load ptr, ptr %6, align 8, !tbaa !14
  store ptr %44, ptr %4, align 8
  br label %50

45:                                               ; preds = %39
  %46 = load ptr, ptr %6, align 8, !tbaa !14
  %47 = load ptr, ptr %7, align 8, !tbaa !3
  %48 = call noundef ptr @_ZN2cv8tinyxml27XMLNode9ParseDeepEPcPNS0_7StrPairE(ptr noundef nonnull align 8 dereferenceable(88) %8, ptr noundef %46, ptr noundef %47)
  store ptr %48, ptr %6, align 8, !tbaa !14
  %49 = load ptr, ptr %6, align 8, !tbaa !14
  store ptr %49, ptr %4, align 8
  br label %50

50:                                               ; preds = %45, %43, %29, %13
  %51 = load ptr, ptr %4, align 8
  ret ptr %51
}