; Function Attrs: mustprogress uwtable
define hidden noundef ptr @_ZN2cv8tinyxml210XMLElement9ParseDeepEPcPNS0_7StrPairE(ptr noundef nonnull align 8 dereferenceable(104) %0, ptr noundef %1, ptr noundef %2) unnamed_addr #4 align 2 {
  %4 = load i8, ptr %1, align 1, !tbaa !12
  %.not5.i = icmp sgt i8 %4, -1
  br i1 %.not5.i, label %.lr.ph.i, label %_ZN2cv8tinyxml27XMLUtil14SkipWhiteSpaceEPc.exit.thread

.lr.ph.i:                                         ; preds = %3, %7
  %.pr = phi i8 [ %9, %7 ], [ %4, %3 ]
  %.06.i = phi ptr [ %8, %7 ], [ %1, %3 ]
  %5 = zext nneg i8 %.pr to i32
  %6 = tail call i32 @isspace(i32 noundef %5) #26
  %.not4.i = icmp eq i32 %6, 0
  br i1 %.not4.i, label %_ZN2cv8tinyxml27XMLUtil14SkipWhiteSpaceEPc.exit, label %7

7:                                                ; preds = %.lr.ph.i
  %8 = getelementptr inbounds nuw i8, ptr %.06.i, i64 1
  %9 = load i8, ptr %8, align 1, !tbaa !12
  %.not.i = icmp sgt i8 %9, -1
  br i1 %.not.i, label %.lr.ph.i, label %_ZN2cv8tinyxml27XMLUtil14SkipWhiteSpaceEPc.exit.thread, !llvm.loop !16

_ZN2cv8tinyxml27XMLUtil14SkipWhiteSpaceEPc.exit:  ; preds = %.lr.ph.i
  %10 = icmp eq i8 %.pr, 47
  br i1 %10, label %11, label %_ZN2cv8tinyxml27XMLUtil14SkipWhiteSpaceEPc.exit.thread

11:                                               ; preds = %_ZN2cv8tinyxml27XMLUtil14SkipWhiteSpaceEPc.exit
  %12 = getelementptr inbounds nuw i8, ptr %0, i64 88
  store i32 2, ptr %12, align 8, !tbaa !44
  %13 = getelementptr inbounds nuw i8, ptr %.06.i, i64 1
  br label %_ZN2cv8tinyxml27XMLUtil14SkipWhiteSpaceEPc.exit.thread

_ZN2cv8tinyxml27XMLUtil14SkipWhiteSpaceEPc.exit.thread: ; preds = %7, %3, %11, %_ZN2cv8tinyxml27XMLUtil14SkipWhiteSpaceEPc.exit
  %.014 = phi ptr [ %13, %11 ], [ %.06.i, %_ZN2cv8tinyxml27XMLUtil14SkipWhiteSpaceEPc.exit ], [ %1, %3 ], [ %8, %7 ]
  %14 = getelementptr inbounds nuw i8, ptr %0, i64 24
  %15 = tail call noundef ptr @_ZN2cv8tinyxml27StrPair9ParseNameEPc(ptr noundef nonnull align 8 dereferenceable(24) %14, ptr noundef nonnull %.014)
  %16 = getelementptr inbounds nuw i8, ptr %0, i64 32
  %17 = load ptr, ptr %16, align 8, !tbaa !10
  %18 = getelementptr inbounds nuw i8, ptr %0, i64 40
  %19 = load ptr, ptr %18, align 8, !tbaa !11
  %20 = icmp eq ptr %17, %19
  br i1 %20, label %29, label %21

21:                                               ; preds = %_ZN2cv8tinyxml27XMLUtil14SkipWhiteSpaceEPc.exit.thread
  %22 = tail call noundef ptr @_ZN2cv8tinyxml210XMLElement15ParseAttributesEPc(ptr noundef nonnull align 8 dereferenceable(104) %0, ptr noundef %15)
  %.not17 = icmp eq ptr %22, null
  br i1 %.not17, label %29, label %23

23:                                               ; preds = %21
  %24 = load i8, ptr %22, align 1, !tbaa !12
  %.not18 = icmp ne i8 %24, 0
  %25 = getelementptr inbounds nuw i8, ptr %0, i64 88
  %26 = load i32, ptr %25, align 8
  %.not19 = icmp eq i32 %26, 0
  %or.cond = select i1 %.not18, i1 %.not19, i1 false
  br i1 %or.cond, label %27, label %29

27:                                               ; preds = %23
  %28 = tail call noundef ptr @_ZN2cv8tinyxml27XMLNode9ParseDeepEPcPNS0_7StrPairE(ptr noundef nonnull align 8 dereferenceable(88) %0, ptr noundef nonnull %22, ptr noundef %2)
  br label %29

29:                                               ; preds = %21, %23, %_ZN2cv8tinyxml27XMLUtil14SkipWhiteSpaceEPc.exit.thread, %27
  %.0 = phi ptr [ %28, %27 ], [ null, %_ZN2cv8tinyxml27XMLUtil14SkipWhiteSpaceEPc.exit.thread ], [ %22, %23 ], [ null, %21 ]
  ret ptr %.0
}